; Function Attrs: mustprogress uwtable
define void @_ZN6icu_7516BuddhistCalendarC2ERKNS_6LocaleER10UErrorCode(ptr noundef nonnull align 8 dereferenceable(654) %this, ptr noundef nonnull align 8 dereferenceable(217) %aLocale, ptr noundef nonnull align 4 dereferenceable(4) %success) unnamed_addr #1 align 2 personality ptr @__gxx_personality_v0 {
entry:
  tail call void @_ZN6icu_7517GregorianCalendarC2ERKNS_6LocaleER10UErrorCode(ptr noundef nonnull align 8 dereferenceable(654) %this, ptr noundef nonnull align 8 dereferenceable(217) %aLocale, ptr noundef nonnull align 4 dereferenceable(4) %success)
  store ptr getelementptr inbounds ({ [61 x ptr] }, ptr @_ZTVN6icu_7516BuddhistCalendarE, i64 0, i32 0, i64 2), ptr %this, align 8
  %call = invoke noundef double @_ZN6icu_758Calendar6getNowEv()
          to label %invoke.cont unwind label %lpad

invoke.cont:                                      ; preds = %entry
  invoke void @_ZN6icu_758Calendar15setTimeInMillisEdR10UErrorCode(ptr noundef nonnull align 8 dereferenceable(618) %this, double noundef %call, ptr noundef nonnull align 4 dereferenceable(4) %success)
          to label %invoke.cont2 unwind label %lpad

invoke.cont2:                                     ; preds = %invoke.cont
  ret void

lpad:                                             ; preds = %invoke.cont, %entry
  %0 = landingpad { ptr, i32 }
          cleanup
  tail call void @_ZN6icu_7517GregorianCalendarD2Ev(ptr noundef nonnull align 8 dereferenceable(654) %this) #5
  resume { ptr, i32 } %0
}